; Function Attrs: nounwind uwtable
define ptr @l_Array_forIn_x27Unsafe_loop___at___private_Lean_Meta_Instances_0__Lean_Meta_computeSynthOrder_getSemiOutParamPositionsOf___spec__1___boxed(ptr noundef %0, ptr noundef %1, ptr noundef %2, ptr noundef %3, ptr noundef %4, ptr noundef %5, ptr noundef %6, ptr noundef %7, ptr noundef %8, ptr noundef %9, ptr noundef %10) local_unnamed_addr #1 {
  %12 = getelementptr i8, ptr %3, i64 8
  %.val30 = load i64, ptr %12, align 8, !tbaa !12
  %13 = ptrtoint ptr %3 to i64
  %14 = and i64 %13, 1
  %.not = icmp eq i64 %14, 0
  br i1 %.not, label %15, label %lean_dec.exit21

15:                                               ; preds = %11
  %16 = load i32, ptr %3, align 4, !tbaa !4
  %17 = icmp sgt i32 %16, 1
  br i1 %17, label %18, label %20, !prof !11

18:                                               ; preds = %15
  %19 = add nsw i32 %16, -1
  store i32 %19, ptr %3, align 4, !tbaa !4
  br label %lean_dec.exit21

20:                                               ; preds = %15
  %.not.i = icmp eq i32 %16, 0
  br i1 %.not.i, label %lean_dec.exit21, label %21

21:                                               ; preds = %20
  tail call void @lean_dec_ref_cold(ptr noundef nonnull %3) #6
  br label %lean_dec.exit21

lean_dec.exit21:                                  ; preds = %21, %20, %18, %11
  %22 = getelementptr i8, ptr %4, i64 8
  %.val = load i64, ptr %22, align 8, !tbaa !12
  %23 = ptrtoint ptr %4 to i64
  %24 = and i64 %23, 1
  %.not31 = icmp eq i64 %24, 0
  br i1 %.not31, label %25, label %lean_dec.exit20

25:                                               ; preds = %lean_dec.exit21
  %26 = load i32, ptr %4, align 4, !tbaa !4
  %27 = icmp sgt i32 %26, 1
  br i1 %27, label %28, label %30, !prof !11

28:                                               ; preds = %25
  %29 = add nsw i32 %26, -1
  store i32 %29, ptr %4, align 4, !tbaa !4
  br label %lean_dec.exit20

30:                                               ; preds = %25
  %.not.i22 = icmp eq i32 %26, 0
  br i1 %.not.i22, label %lean_dec.exit20, label %31

31:                                               ; preds = %30
  tail call void @lean_dec_ref_cold(ptr noundef nonnull %4) #6
  br label %lean_dec.exit20

lean_dec.exit20:                                  ; preds = %31, %30, %28, %lean_dec.exit21
  %32 = tail call ptr @l_Array_forIn_x27Unsafe_loop___at___private_Lean_Meta_Instances_0__Lean_Meta_computeSynthOrder_getSemiOutParamPositionsOf___spec__1(ptr poison, ptr poison, ptr noundef %2, i64 noundef %.val30, i64 noundef %.val, ptr noundef %5, ptr noundef %6, ptr noundef %7, ptr noundef %8, ptr noundef %9, ptr noundef %10)
  %33 = ptrtoint ptr %2 to i64
  %34 = and i64 %33, 1
  %.not32 = icmp eq i64 %34, 0
  br i1 %.not32, label %35, label %lean_dec.exit19

35:                                               ; preds = %lean_dec.exit20
  %36 = load i32, ptr %2, align 4, !tbaa !4
  %37 = icmp sgt i32 %36, 1
  br i1 %37, label %38, label %40, !prof !11

38:                                               ; preds = %35
  %39 = add nsw i32 %36, -1
  store i32 %39, ptr %2, align 4, !tbaa !4
  br label %lean_dec.exit19

40:                                               ; preds = %35
  %.not.i24 = icmp eq i32 %36, 0
  br i1 %.not.i24, label %lean_dec.exit19, label %41

41:                                               ; preds = %40
  tail call void @lean_dec_ref_cold(ptr noundef nonnull %2) #6
  br label %lean_dec.exit19

lean_dec.exit19:                                  ; preds = %41, %40, %38, %lean_dec.exit20
  %42 = ptrtoint ptr %1 to i64
  %43 = and i64 %42, 1
  %.not33 = icmp eq i64 %43, 0
  br i1 %.not33, label %44, label %lean_dec.exit18

44:                                               ; preds = %lean_dec.exit19
  %45 = load i32, ptr %1, align 4, !tbaa !4
  %46 = icmp sgt i32 %45, 1
  br i1 %46, label %47, label %49, !prof !11

47:                                               ; preds = %44
  %48 = add nsw i32 %45, -1
  store i32 %48, ptr %1, align 4, !tbaa !4
  br label %lean_dec.exit18

49:                                               ; preds = %44
  %.not.i26 = icmp eq i32 %45, 0
  br i1 %.not.i26, label %lean_dec.exit18, label %50

50:                                               ; preds = %49
  tail call void @lean_dec_ref_cold(ptr noundef nonnull %1) #6
  br label %lean_dec.exit18

lean_dec.exit18:                                  ; preds = %50, %49, %47, %lean_dec.exit19
  %51 = ptrtoint ptr %0 to i64
  %52 = and i64 %51, 1
  %.not34 = icmp eq i64 %52, 0
  br i1 %.not34, label %53, label %lean_dec.exit

53:                                               ; preds = %lean_dec.exit18
  %54 = load i32, ptr %0, align 4, !tbaa !4
  %55 = icmp sgt i32 %54, 1
  br i1 %55, label %56, label %58, !prof !11

56:                                               ; preds = %53
  %57 = add nsw i32 %54, -1
  store i32 %57, ptr %0, align 4, !tbaa !4
  br label %lean_dec.exit

58:                                               ; preds = %53
  %.not.i28 = icmp eq i32 %54, 0
  br i1 %.not.i28, label %lean_dec.exit, label %59

59:                                               ; preds = %58
  tail call void @lean_dec_ref_cold(ptr noundef nonnull %0) #6
  br label %lean_dec.exit

lean_dec.exit:                                    ; preds = %59, %58, %56, %lean_dec.exit18
  ret ptr %32
}